target datalayout = "e-m:e-p270:32:32-p271:32:32-p272:64:64-i64:64-i128:128-f80:128-n8:16:32:64-S128"
target triple = "x86_64-pc-linux-gnu"

%struct.Decorr = type { i32, i32, i32, i32, [8 x i32], [8 x i32], i32, i32 }

; Function Attrs: nounwind uwtable
define internal void @reverse_mono_decorr(ptr noundef %0) #1 {
  %2 = alloca ptr, align 8
  %3 = alloca i32, align 4
  %4 = alloca i32, align 4
  %5 = alloca i32, align 4
  %6 = alloca i32, align 4
  store ptr %0, ptr %2, align 8, !tbaa !101
  %7 = load ptr, ptr %2, align 8, !tbaa !101
  %8 = getelementptr inbounds nuw %struct.Decorr, ptr %7, i32 0, i32 1
  %9 = load i32, ptr %8, align 4, !tbaa !103
  %10 = icmp sgt i32 %9, 8
  br i1 %10, label %11, label %85

11:                                               ; preds = %1
  call void @llvm.lifetime.start.p0(i64 4, ptr %3) #11
  %12 = load ptr, ptr %2, align 8, !tbaa !101
  %13 = getelementptr inbounds nuw %struct.Decorr, ptr %12, i32 0, i32 1
  %14 = load i32, ptr %13, align 4, !tbaa !103
  %15 = and i32 %14, 1
  %16 = icmp ne i32 %15, 0
  br i1 %16, label %17, label %28

17:                                               ; preds = %11
  %18 = load ptr, ptr %2, align 8, !tbaa !101
  %19 = getelementptr inbounds nuw %struct.Decorr, ptr %18, i32 0, i32 4
  %20 = getelementptr inbounds [8 x i32], ptr %19, i64 0, i64 0
  %21 = load i32, ptr %20, align 4, !tbaa !39
  %22 = mul nsw i32 2, %21
  %23 = load ptr, ptr %2, align 8, !tbaa !101
  %24 = getelementptr inbounds nuw %struct.Decorr, ptr %23, i32 0, i32 4
  %25 = getelementptr inbounds [8 x i32], ptr %24, i64 0, i64 1
  %26 = load i32, ptr %25, align 4, !tbaa !39
  %27 = sub nsw i32 %22, %26
  store i32 %27, ptr %3, align 4, !tbaa !39
  br label %40

28:                                               ; preds = %11
  %29 = load ptr, ptr %2, align 8, !tbaa !101
  %30 = getelementptr inbounds nuw %struct.Decorr, ptr %29, i32 0, i32 4
  %31 = getelementptr inbounds [8 x i32], ptr %30, i64 0, i64 0
  %32 = load i32, ptr %31, align 4, !tbaa !39
  %33 = mul nsw i32 3, %32
  %34 = load ptr, ptr %2, align 8, !tbaa !101
  %35 = getelementptr inbounds nuw %struct.Decorr, ptr %34, i32 0, i32 4
  %36 = getelementptr inbounds [8 x i32], ptr %35, i64 0, i64 1
  %37 = load i32, ptr %36, align 4, !tbaa !39
  %38 = sub nsw i32 %33, %37
  %39 = ashr i32 %38, 1
  store i32 %39, ptr %3, align 4, !tbaa !39
  br label %40

40:                                               ; preds = %28, %17
  %41 = load ptr, ptr %2, align 8, !tbaa !101
  %42 = getelementptr inbounds nuw %struct.Decorr, ptr %41, i32 0, i32 4
  %43 = getelementptr inbounds [8 x i32], ptr %42, i64 0, i64 0
  %44 = load i32, ptr %43, align 4, !tbaa !39
  %45 = load ptr, ptr %2, align 8, !tbaa !101
  %46 = getelementptr inbounds nuw %struct.Decorr, ptr %45, i32 0, i32 4
  %47 = getelementptr inbounds [8 x i32], ptr %46, i64 0, i64 1
  store i32 %44, ptr %47, align 4, !tbaa !39
  %48 = load i32, ptr %3, align 4, !tbaa !39
  %49 = load ptr, ptr %2, align 8, !tbaa !101
  %50 = getelementptr inbounds nuw %struct.Decorr, ptr %49, i32 0, i32 4
  %51 = getelementptr inbounds [8 x i32], ptr %50, i64 0, i64 0
  store i32 %48, ptr %51, align 4, !tbaa !39
  %52 = load ptr, ptr %2, align 8, !tbaa !101
  %53 = getelementptr inbounds nuw %struct.Decorr, ptr %52, i32 0, i32 1
  %54 = load i32, ptr %53, align 4, !tbaa !103
  %55 = and i32 %54, 1
  %56 = icmp ne i32 %55, 0
  br i1 %56, label %57, label %68

57:                                               ; preds = %40
  %58 = load ptr, ptr %2, align 8, !tbaa !101
  %59 = getelementptr inbounds nuw %struct.Decorr, ptr %58, i32 0, i32 4
  %60 = getelementptr inbounds [8 x i32], ptr %59, i64 0, i64 0
  %61 = load i32, ptr %60, align 4, !tbaa !39
  %62 = mul nsw i32 2, %61
  %63 = load ptr, ptr %2, align 8, !tbaa !101
  %64 = getelementptr inbounds nuw %struct.Decorr, ptr %63, i32 0, i32 4
  %65 = getelementptr inbounds [8 x i32], ptr %64, i64 0, i64 1
  %66 = load i32, ptr %65, align 4, !tbaa !39
  %67 = sub nsw i32 %62, %66
  store i32 %67, ptr %3, align 4, !tbaa !39
  br label %80

68:                                               ; preds = %40
  %69 = load ptr, ptr %2, align 8, !tbaa !101
  %70 = getelementptr inbounds nuw %struct.Decorr, ptr %69, i32 0, i32 4
  %71 = getelementptr inbounds [8 x i32], ptr %70, i64 0, i64 0
  %72 = load i32, ptr %71, align 4, !tbaa !39
  %73 = mul nsw i32 3, %72
  %74 = load ptr, ptr %2, align 8, !tbaa !101
  %75 = getelementptr inbounds nuw %struct.Decorr, ptr %74, i32 0, i32 4
  %76 = getelementptr inbounds [8 x i32], ptr %75, i64 0, i64 1
  %77 = load i32, ptr %76, align 4, !tbaa !39
  %78 = sub nsw i32 %73, %77
  %79 = ashr i32 %78, 1
  store i32 %79, ptr %3, align 4, !tbaa !39
  br label %80

80:                                               ; preds = %68, %57
  %81 = load i32, ptr %3, align 4, !tbaa !39
  %82 = load ptr, ptr %2, align 8, !tbaa !101
  %83 = getelementptr inbounds nuw %struct.Decorr, ptr %82, i32 0, i32 4
  %84 = getelementptr inbounds [8 x i32], ptr %83, i64 0, i64 1
  store i32 %81, ptr %84, align 4, !tbaa !39
  call void @llvm.lifetime.end.p0(i64 4, ptr %3) #11
  br label %155

85:                                               ; preds = %1
  %86 = load ptr, ptr %2, align 8, !tbaa !101
  %87 = getelementptr inbounds nuw %struct.Decorr, ptr %86, i32 0, i32 1
  %88 = load i32, ptr %87, align 4, !tbaa !103
  %89 = icmp sgt i32 %88, 1
  br i1 %89, label %90, label %154

90:                                               ; preds = %85
  call void @llvm.lifetime.start.p0(i64 4, ptr %4) #11
  call void @llvm.lifetime.start.p0(i64 4, ptr %5) #11
  call void @llvm.lifetime.start.p0(i64 4, ptr %6) #11
  store i32 0, ptr %4, align 4, !tbaa !39
  %91 = load ptr, ptr %2, align 8, !tbaa !101
  %92 = getelementptr inbounds nuw %struct.Decorr, ptr %91, i32 0, i32 1
  %93 = load i32, ptr %92, align 4, !tbaa !103
  %94 = sub nsw i32 %93, 1
  store i32 %94, ptr %5, align 4, !tbaa !39
  store i32 0, ptr %6, align 4, !tbaa !39
  br label %95

95:                                               ; preds = %146, %90
  %96 = load i32, ptr %6, align 4, !tbaa !39
  %97 = load ptr, ptr %2, align 8, !tbaa !101
  %98 = getelementptr inbounds nuw %struct.Decorr, ptr %97, i32 0, i32 1
  %99 = load i32, ptr %98, align 4, !tbaa !103
  %100 = sdiv i32 %99, 2
  %101 = icmp slt i32 %96, %100
  br i1 %101, label %102, label %153

102:                                              ; preds = %95
  %103 = load i32, ptr %4, align 4, !tbaa !39
  %104 = and i32 %103, 7
  store i32 %104, ptr %4, align 4, !tbaa !39
  %105 = load i32, ptr %5, align 4, !tbaa !39
  %106 = and i32 %105, 7
  store i32 %106, ptr %5, align 4, !tbaa !39
  %107 = load ptr, ptr %2, align 8, !tbaa !101
  %108 = getelementptr inbounds nuw %struct.Decorr, ptr %107, i32 0, i32 4
  %109 = load i32, ptr %5, align 4, !tbaa !39
  %110 = sext i32 %109 to i64
  %111 = getelementptr inbounds [8 x i32], ptr %108, i64 0, i64 %110
  %112 = load i32, ptr %111, align 4, !tbaa !39
  %113 = load ptr, ptr %2, align 8, !tbaa !101
  %114 = getelementptr inbounds nuw %struct.Decorr, ptr %113, i32 0, i32 4
  %115 = load i32, ptr %4, align 4, !tbaa !39
  %116 = sext i32 %115 to i64
  %117 = getelementptr inbounds [8 x i32], ptr %114, i64 0, i64 %116
  %118 = load i32, ptr %117, align 4, !tbaa !39
  %119 = xor i32 %118, %112
  store i32 %119, ptr %117, align 4, !tbaa !39
  %120 = load ptr, ptr %2, align 8, !tbaa !101
  %121 = getelementptr inbounds nuw %struct.Decorr, ptr %120, i32 0, i32 4
  %122 = load i32, ptr %4, align 4, !tbaa !39
  %123 = sext i32 %122 to i64
  %124 = getelementptr inbounds [8 x i32], ptr %121, i64 0, i64 %123
  %125 = load i32, ptr %124, align 4, !tbaa !39
  %126 = load ptr, ptr %2, align 8, !tbaa !101
  %127 = getelementptr inbounds nuw %struct.Decorr, ptr %126, i32 0, i32 4
  %128 = load i32, ptr %5, align 4, !tbaa !39
  %129 = sext i32 %128 to i64
  %130 = getelementptr inbounds [8 x i32], ptr %127, i64 0, i64 %129
  %131 = load i32, ptr %130, align 4, !tbaa !39
  %132 = xor i32 %131, %125
  store i32 %132, ptr %130, align 4, !tbaa !39
  %133 = load ptr, ptr %2, align 8, !tbaa !101
  %134 = getelementptr inbounds nuw %struct.Decorr, ptr %133, i32 0, i32 4
  %135 = load i32, ptr %5, align 4, !tbaa !39
  %136 = sext i32 %135 to i64
  %137 = getelementptr inbounds [8 x i32], ptr %134, i64 0, i64 %136
  %138 = load i32, ptr %137, align 4, !tbaa !39
  %139 = load ptr, ptr %2, align 8, !tbaa !101
  %140 = getelementptr inbounds nuw %struct.Decorr, ptr %139, i32 0, i32 4
  %141 = load i32, ptr %4, align 4, !tbaa !39
  %142 = sext i32 %141 to i64
  %143 = getelementptr inbounds [8 x i32], ptr %140, i64 0, i64 %142
  %144 = load i32, ptr %143, align 4, !tbaa !39
  %145 = xor i32 %144, %138
  store i32 %145, ptr %143, align 4, !tbaa !39
  br label %146

146:                                              ; preds = %102
  %147 = load i32, ptr %4, align 4, !tbaa !39
  %148 = add nsw i32 %147, 1
  store i32 %148, ptr %4, align 4, !tbaa !39
  %149 = load i32, ptr %5, align 4, !tbaa !39
  %150 = add nsw i32 %149, -1
  store i32 %150, ptr %5, align 4, !tbaa !39
  %151 = load i32, ptr %6, align 4, !tbaa !39
  %152 = add nsw i32 %151, 1
  store i32 %152, ptr %6, align 4, !tbaa !39
  br label %95, !llvm.loop !224

153:                                              ; preds = %95
  call void @llvm.lifetime.end.p0(i64 4, ptr %6) #11
  call void @llvm.lifetime.end.p0(i64 4, ptr %5) #11
  call void @llvm.lifetime.end.p0(i64 4, ptr %4) #11
  br label %154

154:                                              ; preds = %153, %85
  br label %155

155:                                              ; preds = %154, %80
  ret void
}

; Function Attrs: nounwind uwtable
define internal void @decorr_mono_buffer(ptr noundef %0, ptr noundef %1, i32 noundef %2, ptr noundef %3, i32 noundef %4) #1 {
  %6 = alloca ptr, align 8
  %7 = alloca ptr, align 8
  %8 = alloca i32, align 4
  %9 = alloca ptr, align 8
  %10 = alloca i32, align 4
  %11 = alloca %struct.Decorr, align 4
  %12 = alloca ptr, align 8
  %13 = alloca i32, align 4
  %14 = alloca i32, align 4
  %15 = alloca i32, align 4
  store ptr %0, ptr %6, align 8, !tbaa !58
  store ptr %1, ptr %7, align 8, !tbaa !58
  store i32 %2, ptr %8, align 4, !tbaa !39
  store ptr %3, ptr %9, align 8, !tbaa !101
  store i32 %4, ptr %10, align 4, !tbaa !39
  call void @llvm.lifetime.start.p0(i64 88, ptr %11) #11
  call void @llvm.lifetime.start.p0(i64 8, ptr %12) #11
  %16 = load ptr, ptr %9, align 8, !tbaa !101
  %17 = load i32, ptr %10, align 4, !tbaa !39
  %18 = sext i32 %17 to i64
  %19 = getelementptr inbounds %struct.Decorr, ptr %16, i64 %18
  store ptr %19, ptr %12, align 8, !tbaa !101
  call void @llvm.lifetime.start.p0(i64 4, ptr %13) #11
  %20 = load ptr, ptr %12, align 8, !tbaa !101
  %21 = getelementptr inbounds nuw %struct.Decorr, ptr %20, i32 0, i32 0
  %22 = load i32, ptr %21, align 4, !tbaa !105
  store i32 %22, ptr %13, align 4, !tbaa !39
  call void @llvm.lifetime.start.p0(i64 4, ptr %14) #11
  call void @llvm.lifetime.start.p0(i64 4, ptr %15) #11
  %23 = load ptr, ptr %12, align 8, !tbaa !101
  %24 = getelementptr inbounds nuw %struct.Decorr, ptr %23, i32 0, i32 1
  %25 = load i32, ptr %24, align 4, !tbaa !103
  store i32 %25, ptr %15, align 4, !tbaa !39
  %26 = load i32, ptr %13, align 4, !tbaa !39
  %27 = icmp eq i32 %26, 7
  br i1 %27, label %28, label %29

28:                                               ; preds = %5
  store i32 7, ptr %14, align 4, !tbaa !39
  br label %37

29:                                               ; preds = %5
  %30 = load i32, ptr %13, align 4, !tbaa !39
  %31 = icmp slt i32 %30, 2
  br i1 %31, label %32, label %33

32:                                               ; preds = %29
  store i32 3, ptr %14, align 4, !tbaa !39
  br label %36

33:                                               ; preds = %29
  %34 = load i32, ptr %13, align 4, !tbaa !39
  %35 = add nsw i32 %34, 1
  store i32 %35, ptr %14, align 4, !tbaa !39
  br label %36

36:                                               ; preds = %33, %32
  br label %37

37:                                               ; preds = %36, %28
  call void @llvm.memset.p0.i64(ptr align 4 %11, i8 0, i64 88, i1 false)
  %38 = load i32, ptr %15, align 4, !tbaa !39
  %39 = getelementptr inbounds nuw %struct.Decorr, ptr %11, i32 0, i32 1
  store i32 %38, ptr %39, align 4, !tbaa !103
  %40 = load i32, ptr %14, align 4, !tbaa !39
  %41 = getelementptr inbounds nuw %struct.Decorr, ptr %11, i32 0, i32 0
  store i32 %40, ptr %41, align 4, !tbaa !105
  %42 = load ptr, ptr %6, align 8, !tbaa !58
  %43 = load ptr, ptr %7, align 8, !tbaa !58
  %44 = load i32, ptr %8, align 4, !tbaa !39
  %45 = icmp sgt i32 2048, %44
  br i1 %45, label %46, label %48

46:                                               ; preds = %37
  %47 = load i32, ptr %8, align 4, !tbaa !39
  br label %49

48:                                               ; preds = %37
  br label %49

49:                                               ; preds = %48, %46
  %50 = phi i32 [ %47, %46 ], [ 2048, %48 ]
  call void @decorr_mono(ptr noundef %42, ptr noundef %43, i32 noundef %50, ptr noundef %11, i32 noundef -1)
  %51 = load i32, ptr %13, align 4, !tbaa !39
  %52 = getelementptr inbounds nuw %struct.Decorr, ptr %11, i32 0, i32 0
  store i32 %51, ptr %52, align 4, !tbaa !105
  %53 = load i32, ptr %10, align 4, !tbaa !39
  %54 = icmp eq i32 %53, 0
  br i1 %54, label %55, label %56

55:                                               ; preds = %49
  call void @reverse_mono_decorr(ptr noundef %11)
  br label %58

56:                                               ; preds = %49
  %57 = getelementptr inbounds nuw %struct.Decorr, ptr %11, i32 0, i32 4
  call void @llvm.memset.p0.i64(ptr align 4 %57, i8 0, i64 32, i1 false)
  br label %58

58:                                               ; preds = %56, %55
  %59 = load ptr, ptr %12, align 8, !tbaa !101
  %60 = getelementptr inbounds nuw %struct.Decorr, ptr %59, i32 0, i32 4
  %61 = getelementptr inbounds [8 x i32], ptr %60, i64 0, i64 0
  %62 = getelementptr inbounds nuw %struct.Decorr, ptr %11, i32 0, i32 4
  %63 = getelementptr inbounds [8 x i32], ptr %62, i64 0, i64 0
  call void @llvm.memcpy.p0.p0.i64(ptr align 4 %61, ptr align 4 %63, i64 32, i1 false)
  %64 = getelementptr inbounds nuw %struct.Decorr, ptr %11, i32 0, i32 2
  %65 = load i32, ptr %64, align 4, !tbaa !107
  %66 = load ptr, ptr %12, align 8, !tbaa !101
  %67 = getelementptr inbounds nuw %struct.Decorr, ptr %66, i32 0, i32 2
  store i32 %65, ptr %67, align 4, !tbaa !107
  %68 = load i32, ptr %13, align 4, !tbaa !39
  %69 = icmp eq i32 %68, 0
  br i1 %69, label %70, label %88

70:                                               ; preds = %58
  %71 = getelementptr inbounds nuw %struct.Decorr, ptr %11, i32 0, i32 0
  store i32 1, ptr %71, align 4, !tbaa !105
  %72 = load ptr, ptr %6, align 8, !tbaa !58
  %73 = load ptr, ptr %7, align 8, !tbaa !58
  %74 = load i32, ptr %8, align 4, !tbaa !39
  call void @decorr_mono(ptr noundef %72, ptr noundef %73, i32 noundef %74, ptr noundef %11, i32 noundef 1)
  %75 = getelementptr inbounds nuw %struct.Decorr, ptr %11, i32 0, i32 0
  store i32 0, ptr %75, align 4, !tbaa !105
  %76 = getelementptr inbounds nuw %struct.Decorr, ptr %11, i32 0, i32 4
  %77 = getelementptr inbounds [8 x i32], ptr %76, i64 0, i64 0
  %78 = load ptr, ptr %12, align 8, !tbaa !101
  %79 = getelementptr inbounds nuw %struct.Decorr, ptr %78, i32 0, i32 4
  %80 = getelementptr inbounds [8 x i32], ptr %79, i64 0, i64 0
  call void @llvm.memcpy.p0.p0.i64(ptr align 4 %77, ptr align 4 %80, i64 32, i1 false)
  %81 = getelementptr inbounds nuw %struct.Decorr, ptr %11, i32 0, i32 6
  %82 = load i32, ptr %81, align 4, !tbaa !219
  %83 = load i32, ptr %8, align 4, !tbaa !39
  %84 = sdiv i32 %82, %83
  %85 = getelementptr inbounds nuw %struct.Decorr, ptr %11, i32 0, i32 2
  store i32 %84, ptr %85, align 4, !tbaa !107
  %86 = load ptr, ptr %12, align 8, !tbaa !101
  %87 = getelementptr inbounds nuw %struct.Decorr, ptr %86, i32 0, i32 2
  store i32 %84, ptr %87, align 4, !tbaa !107
  br label %88

88:                                               ; preds = %70, %58
  %89 = load ptr, ptr %6, align 8, !tbaa !58
  %90 = load ptr, ptr %7, align 8, !tbaa !58
  %91 = load i32, ptr %8, align 4, !tbaa !39
  call void @decorr_mono(ptr noundef %89, ptr noundef %90, i32 noundef %91, ptr noundef %11, i32 noundef 1)
  call void @llvm.lifetime.end.p0(i64 4, ptr %15) #11
  call void @llvm.lifetime.end.p0(i64 4, ptr %14) #11
  call void @llvm.lifetime.end.p0(i64 4, ptr %13) #11
  call void @llvm.lifetime.end.p0(i64 8, ptr %12) #11
  call void @llvm.lifetime.end.p0(i64 88, ptr %11) #11
  ret void
}