; Function Attrs: nofree norecurse nosync nounwind memory(argmem: readwrite) uwtable
define internal fastcc void @decorr_mono_buffer(ptr noundef readonly captures(none) %0, ptr noundef writeonly captures(none) %1, i32 noundef %2, ptr noundef nonnull captures(none) %3, i32 noundef %4) unnamed_addr #9 {
  %6 = alloca %struct.Decorr, align 4
  call void @llvm.lifetime.start.p0(i64 88, ptr nonnull %6) #15
  %7 = sext i32 %4 to i64
  %8 = getelementptr inbounds %struct.Decorr, ptr %3, i64 %7
  %9 = load i32, ptr %8, align 4, !tbaa !119
  %10 = getelementptr inbounds nuw i8, ptr %8, i64 4
  %11 = load i32, ptr %10, align 4, !tbaa !117
  %12 = icmp eq i32 %9, 7
  %13 = tail call i32 @llvm.smax.i32(i32 %9, i32 2)
  %spec.select = add nuw i32 %13, 1
  %.0 = select i1 %12, i32 7, i32 %spec.select
  %14 = getelementptr inbounds nuw i8, ptr %6, i64 8
  call void @llvm.memset.p0.i64(ptr noundef nonnull align 4 dereferenceable(80) %14, i8 0, i64 80, i1 false)
  %15 = getelementptr inbounds nuw i8, ptr %6, i64 4
  store i32 %11, ptr %15, align 4, !tbaa !117
  store i32 %.0, ptr %6, align 4, !tbaa !119
  %16 = tail call i32 @llvm.smin.i32(i32 %2, i32 2048)
  call fastcc void @decorr_mono(ptr noundef %0, ptr noundef %1, i32 noundef %16, ptr noundef %6, i32 noundef -1)
  store i32 %9, ptr %6, align 4, !tbaa !119
  %17 = icmp eq i32 %4, 0
  br i1 %17, label %18, label %60

18:                                               ; preds = %5
  %19 = load i32, ptr %15, align 4, !tbaa !117
  %20 = icmp sgt i32 %19, 8
  br i1 %20, label %21, label %40

21:                                               ; preds = %18
  %22 = and i32 %19, 1
  %.not.i = icmp eq i32 %22, 0
  %23 = getelementptr inbounds nuw i8, ptr %6, i64 16
  %24 = load i32, ptr %23, align 4, !tbaa !58
  %25 = getelementptr inbounds nuw i8, ptr %6, i64 20
  %26 = load i32, ptr %25, align 4, !tbaa !58
  br i1 %.not.i, label %32, label %27

27:                                               ; preds = %21
  %28 = shl nsw i32 %24, 1
  %29 = sub nsw i32 %28, %26
  %30 = shl nsw i32 %29, 1
  %31 = sub nsw i32 %30, %24
  br label %39

32:                                               ; preds = %21
  %33 = mul nsw i32 %24, 3
  %34 = sub nsw i32 %33, %26
  %35 = ashr i32 %34, 1
  %36 = mul nsw i32 %35, 3
  %37 = sub nsw i32 %36, %24
  %38 = ashr i32 %37, 1
  br label %39

39:                                               ; preds = %32, %27
  %.sink = phi i32 [ %35, %32 ], [ %29, %27 ]
  %.1.i = phi i32 [ %38, %32 ], [ %31, %27 ]
  store i32 %.sink, ptr %23, align 4, !tbaa !58
  store i32 %.1.i, ptr %25, align 4, !tbaa !58
  br label %reverse_mono_decorr.exit

40:                                               ; preds = %18
  %41 = icmp sgt i32 %19, 1
  br i1 %41, label %.lr.ph.i, label %reverse_mono_decorr.exit

.lr.ph.i:                                         ; preds = %40
  %42 = lshr i32 %19, 1
  %43 = getelementptr inbounds nuw i8, ptr %6, i64 16
  br label %44

44:                                               ; preds = %44, %.lr.ph.i
  %.047.i = phi i32 [ 0, %.lr.ph.i ], [ %59, %44 ]
  %.037.in46.i = phi i32 [ %19, %.lr.ph.i ], [ %46, %44 ]
  %.03845.i = phi i32 [ 0, %.lr.ph.i ], [ %58, %44 ]
  %.037.i = add nuw i32 %.037.in46.i, 7
  %45 = and i32 %.03845.i, 7
  %46 = and i32 %.037.i, 7
  %47 = zext nneg i32 %46 to i64
  %48 = getelementptr inbounds nuw [8 x i32], ptr %43, i64 0, i64 %47
  %49 = load i32, ptr %48, align 4, !tbaa !58
  %50 = zext nneg i32 %45 to i64
  %51 = getelementptr inbounds nuw [8 x i32], ptr %43, i64 0, i64 %50
  %52 = load i32, ptr %51, align 4, !tbaa !58
  %53 = xor i32 %52, %49
  store i32 %53, ptr %51, align 4, !tbaa !58
  %54 = load i32, ptr %48, align 4, !tbaa !58
  %55 = xor i32 %54, %53
  store i32 %55, ptr %48, align 4, !tbaa !58
  %56 = load i32, ptr %51, align 4, !tbaa !58
  %57 = xor i32 %56, %55
  store i32 %57, ptr %51, align 4, !tbaa !58
  %58 = add nuw nsw i32 %45, 1
  %59 = add nuw nsw i32 %.047.i, 1
  %exitcond.not.i = icmp eq i32 %59, %42
  br i1 %exitcond.not.i, label %reverse_mono_decorr.exit, label %44, !llvm.loop !175

60:                                               ; preds = %5
  %61 = getelementptr inbounds nuw i8, ptr %6, i64 16
  call void @llvm.memset.p0.i64(ptr noundef nonnull align 4 dereferenceable(32) %61, i8 0, i64 32, i1 false)
  br label %reverse_mono_decorr.exit

reverse_mono_decorr.exit:                         ; preds = %44, %40, %39, %60
  %62 = getelementptr inbounds nuw i8, ptr %8, i64 16
  %63 = getelementptr inbounds nuw i8, ptr %6, i64 16
  call void @llvm.memcpy.p0.p0.i64(ptr noundef nonnull align 4 dereferenceable(32) %62, ptr noundef nonnull align 4 dereferenceable(32) %63, i64 32, i1 false)
  %64 = getelementptr inbounds nuw i8, ptr %6, i64 8
  %65 = load i32, ptr %64, align 4, !tbaa !121
  %66 = getelementptr inbounds nuw i8, ptr %8, i64 8
  store i32 %65, ptr %66, align 4, !tbaa !121
  %67 = icmp eq i32 %9, 0
  br i1 %67, label %68, label %72

68:                                               ; preds = %reverse_mono_decorr.exit
  store i32 1, ptr %6, align 4, !tbaa !119
  call fastcc void @decorr_mono(ptr noundef %0, ptr noundef %1, i32 noundef %2, ptr noundef %6, i32 noundef 1)
  store i32 0, ptr %6, align 4, !tbaa !119
  call void @llvm.memcpy.p0.p0.i64(ptr noundef nonnull align 4 dereferenceable(32) %63, ptr noundef nonnull align 4 dereferenceable(32) %62, i64 32, i1 false)
  %69 = getelementptr inbounds nuw i8, ptr %6, i64 80
  %70 = load i32, ptr %69, align 4, !tbaa !184
  %71 = sdiv i32 %70, %2
  store i32 %71, ptr %64, align 4, !tbaa !121
  store i32 %71, ptr %66, align 4, !tbaa !121
  br label %72

72:                                               ; preds = %68, %reverse_mono_decorr.exit
  call fastcc void @decorr_mono(ptr noundef %0, ptr noundef %1, i32 noundef %2, ptr noundef %6, i32 noundef 1)
  call void @llvm.lifetime.end.p0(i64 88, ptr nonnull %6) #15
  ret void
}